; Function Attrs: mustprogress uwtable
define hidden noalias noundef nonnull ptr @ceres_create_arctan_loss_function_data(double noundef %0) local_unnamed_addr #4 personality ptr @__gxx_personality_v0 {
  %2 = tail call noalias noundef nonnull dereferenceable(24) ptr @_Znwm(i64 noundef 24) #18
  store ptr getelementptr inbounds nuw inrange(-16, 24) (i8, ptr @_ZTVN5ceres10ArctanLossE, i64 16), ptr %2, align 8, !tbaa !3
  %3 = getelementptr inbounds nuw i8, ptr %2, i64 8
  store double %0, ptr %3, align 8, !tbaa !18
  %4 = getelementptr inbounds nuw i8, ptr %2, i64 16
  %5 = fmul double %0, %0
  %6 = fdiv double 1.000000e+00, %5
  store double %6, ptr %4, align 8, !tbaa !20
  ret ptr %2
}